; Function Attrs: nounwind uwtable
define range(i32 -1, 1) i32 @H5D__select_read(ptr noundef %0, ptr noundef %1) local_unnamed_addr #0 {
  %3 = load i8, ptr @H5D_init_g, align 1, !tbaa !3, !range !7, !noundef !8
  %4 = trunc nuw i8 %3 to i1
  %5 = load i8, ptr @H5_libterm_g, align 1, !range !7
  %6 = trunc nuw i8 %5 to i1
  %7 = xor i1 %6, true
  %8 = select i1 %4, i1 true, i1 %7
  br i1 %8, label %9, label %18, !prof !9

9:                                                ; preds = %2
  %10 = getelementptr inbounds nuw i8, ptr %1, i64 248
  %11 = load i64, ptr %10, align 8, !tbaa !14
  %12 = tail call fastcc i32 @H5D__select_io(ptr noundef %0, ptr noundef %1, i64 noundef %11)
  %13 = icmp slt i32 %12, 0
  br i1 %13, label %14, label %18

14:                                               ; preds = %9
  %15 = load i64, ptr @H5E_DATASPACE_g, align 8, !tbaa !10
  %16 = load i64, ptr @H5E_READERROR_g, align 8, !tbaa !10
  %17 = tail call i32 (ptr, ptr, i32, i64, i64, ptr, ...) @H5E_printf_stack(ptr noundef nonnull @.str.2, ptr noundef nonnull @__func__.H5D__select_read, i32 noundef 459, i64 noundef %15, i64 noundef %16, ptr noundef nonnull @.str.16) #4
  br label %18

18:                                               ; preds = %14, %9, %2
  %.0 = phi i32 [ -1, %14 ], [ 0, %9 ], [ 0, %2 ]
  ret i32 %.0
}